target datalayout = "e-m:e-p270:32:32-p271:32:32-p272:64:64-i64:64-i128:128-f80:128-n8:16:32:64-S128"
target triple = "x86_64-pc-linux-gnu"

%struct.xcgroup_ns_t = type { ptr, ptr, ptr, ptr }
%struct.xcgroup_t = type { ptr, ptr, ptr, i32, i32, i32 }

@g_cg_name = dso_local global [5 x ptr] [ptr @.str, ptr @.str.1, ptr @.str.2, ptr @.str.3, ptr @.str.4], align 16
@g_cg_ns = internal global [5 x %struct.xcgroup_ns_t] zeroinitializer, align 16
@int_cg = internal global [5 x [9 x %struct.xcgroup_t]] zeroinitializer, align 16
@.str.7 = private unnamed_addr constant [21 x i8] c"memory.use_hierarchy\00", align 1
@.str.8 = private unnamed_addr constant [2 x i8] c"1\00", align 1
@.str.9 = private unnamed_addr constant [34 x i8] c"cgroup subsystem %u not supported\00", align 1
@.str.10 = private unnamed_addr constant [10 x i8] c"%s/system\00", align 1
@.str.11 = private unnamed_addr constant [18 x i8] c"notify_on_release\00", align 1
@.str.12 = private unnamed_addr constant [2 x i8] c"0\00", align 1
@.str.13 = private unnamed_addr constant [78 x i8] c"system cgroup: unable to ask for hierarchical accounting of system memcg '%s'\00", align 1
@.str.14 = private unnamed_addr constant [19 x i8] c"memory.oom_control\00", align 1
@.str.15 = private unnamed_addr constant [72 x i8] c"Resource spec: unable to disable OOM Killer in system memory cgroup: %s\00", align 1
@.str.16 = private unnamed_addr constant [39 x i8] c"This operation is not supported for %s\00", align 1

; Function Attrs: nounwind uwtable
define dso_local i32 @cgroup_p_system_create(i32 noundef %0) #0 {
  %2 = alloca i32, align 4
  %3 = alloca i32, align 4
  %4 = alloca ptr, align 8
  %5 = alloca i32, align 4
  %6 = alloca i32, align 4
  store i32 %0, ptr %3, align 4
  call void @llvm.lifetime.start.p0(i64 8, ptr %4) #7
  store ptr null, ptr %4, align 8
  call void @llvm.lifetime.start.p0(i64 4, ptr %5) #7
  store i32 0, ptr %5, align 4
  %7 = load i32, ptr %3, align 4
  switch i32 %7, label %80 [
    i32 1, label %8
    i32 2, label %10
    i32 0, label %74
    i32 3, label %74
    i32 4, label %74
  ]

8:                                                ; preds = %1
  %9 = call i32 @_cpuset_create(ptr noundef null)
  store i32 %9, ptr %5, align 4
  br label %83

10:                                               ; preds = %1
  %11 = load i32, ptr %3, align 4
  %12 = zext i32 %11 to i64
  %13 = getelementptr inbounds nuw [5 x [9 x %struct.xcgroup_t]], ptr @int_cg, i64 0, i64 %12
  %14 = getelementptr inbounds [9 x %struct.xcgroup_t], ptr %13, i64 0, i64 1
  %15 = getelementptr inbounds nuw %struct.xcgroup_t, ptr %14, i32 0, i32 1
  %16 = load ptr, ptr %15, align 8
  call void (ptr, ptr, ...) @_xstrfmtcat(ptr noundef %4, ptr noundef @.str.10, ptr noundef %16)
  %17 = load i32, ptr %3, align 4
  %18 = zext i32 %17 to i64
  %19 = getelementptr inbounds nuw [5 x %struct.xcgroup_ns_t], ptr @g_cg_ns, i64 0, i64 %18
  %20 = load i32, ptr %3, align 4
  %21 = zext i32 %20 to i64
  %22 = getelementptr inbounds nuw [5 x [9 x %struct.xcgroup_t]], ptr @int_cg, i64 0, i64 %21
  %23 = getelementptr inbounds [9 x %struct.xcgroup_t], ptr %22, i64 0, i64 8
  %24 = load ptr, ptr %4, align 8
  %25 = call i32 @getuid() #7
  %26 = call i32 @getgid() #7
  %27 = call i32 @common_cgroup_create(ptr noundef %19, ptr noundef %23, ptr noundef %24, i32 noundef %25, i32 noundef %26)
  store i32 %27, ptr %5, align 4
  %28 = icmp ne i32 %27, 0
  br i1 %28, label %29, label %30

29:                                               ; preds = %10
  br label %84

30:                                               ; preds = %10
  %31 = load i32, ptr %3, align 4
  %32 = zext i32 %31 to i64
  %33 = getelementptr inbounds nuw [5 x [9 x %struct.xcgroup_t]], ptr @int_cg, i64 0, i64 %32
  %34 = getelementptr inbounds [9 x %struct.xcgroup_t], ptr %33, i64 0, i64 8
  %35 = call i32 @common_cgroup_instantiate(ptr noundef %34)
  store i32 %35, ptr %5, align 4
  %36 = icmp ne i32 %35, 0
  br i1 %36, label %37, label %38

37:                                               ; preds = %30
  br label %84

38:                                               ; preds = %30
  %39 = load i32, ptr %3, align 4
  %40 = zext i32 %39 to i64
  %41 = getelementptr inbounds nuw [5 x [9 x %struct.xcgroup_t]], ptr @int_cg, i64 0, i64 %40
  %42 = getelementptr inbounds [9 x %struct.xcgroup_t], ptr %41, i64 0, i64 8
  %43 = call i32 @common_cgroup_set_param(ptr noundef %42, ptr noundef @.str.11, ptr noundef @.str.12)
  %44 = load i32, ptr %3, align 4
  %45 = zext i32 %44 to i64
  %46 = getelementptr inbounds nuw [5 x [9 x %struct.xcgroup_t]], ptr @int_cg, i64 0, i64 %45
  %47 = getelementptr inbounds [9 x %struct.xcgroup_t], ptr %46, i64 0, i64 8
  %48 = call i32 @common_cgroup_set_param(ptr noundef %47, ptr noundef @.str.7, ptr noundef @.str.8)
  store i32 %48, ptr %5, align 4
  %49 = icmp ne i32 %48, 0
  br i1 %49, label %50, label %58

50:                                               ; preds = %38
  %51 = load i32, ptr %3, align 4
  %52 = zext i32 %51 to i64
  %53 = getelementptr inbounds nuw [5 x [9 x %struct.xcgroup_t]], ptr @int_cg, i64 0, i64 %52
  %54 = getelementptr inbounds [9 x %struct.xcgroup_t], ptr %53, i64 0, i64 8
  %55 = getelementptr inbounds nuw %struct.xcgroup_t, ptr %54, i32 0, i32 2
  %56 = load ptr, ptr %55, align 8
  %57 = call i32 (ptr, ...) @error(ptr noundef @.str.13, ptr noundef %56)
  br label %84

58:                                               ; preds = %38
  %59 = load i32, ptr %3, align 4
  %60 = zext i32 %59 to i64
  %61 = getelementptr inbounds nuw [5 x [9 x %struct.xcgroup_t]], ptr @int_cg, i64 0, i64 %60
  %62 = getelementptr inbounds [9 x %struct.xcgroup_t], ptr %61, i64 0, i64 8
  %63 = call i32 @common_cgroup_set_uint64_param(ptr noundef %62, ptr noundef @.str.14, i64 noundef 1)
  store i32 %63, ptr %5, align 4
  %64 = icmp ne i32 %63, 0
  br i1 %64, label %65, label %73

65:                                               ; preds = %58
  %66 = load i32, ptr %3, align 4
  %67 = zext i32 %66 to i64
  %68 = getelementptr inbounds nuw [5 x [9 x %struct.xcgroup_t]], ptr @int_cg, i64 0, i64 %67
  %69 = getelementptr inbounds [9 x %struct.xcgroup_t], ptr %68, i64 0, i64 8
  %70 = getelementptr inbounds nuw %struct.xcgroup_t, ptr %69, i32 0, i32 2
  %71 = load ptr, ptr %70, align 8
  %72 = call i32 (ptr, ...) @error(ptr noundef @.str.15, ptr noundef %71)
  br label %84

73:                                               ; preds = %58
  br label %83

74:                                               ; preds = %1, %1, %1
  %75 = load i32, ptr %3, align 4
  %76 = zext i32 %75 to i64
  %77 = getelementptr inbounds nuw [5 x ptr], ptr @g_cg_name, i64 0, i64 %76
  %78 = load ptr, ptr %77, align 8
  %79 = call i32 (ptr, ...) @error(ptr noundef @.str.16, ptr noundef %78)
  store i32 -1, ptr %2, align 4
  store i32 1, ptr %6, align 4
  br label %86

80:                                               ; preds = %1
  %81 = load i32, ptr %3, align 4
  %82 = call i32 (ptr, ...) @error(ptr noundef @.str.9, i32 noundef %81)
  store i32 -1, ptr %2, align 4
  store i32 1, ptr %6, align 4
  br label %86

83:                                               ; preds = %73, %8
  br label %84

84:                                               ; preds = %83, %65, %50, %37, %29
  call void @slurm_xfree(ptr noundef %4)
  %85 = load i32, ptr %5, align 4
  store i32 %85, ptr %2, align 4
  store i32 1, ptr %6, align 4
  br label %86

86:                                               ; preds = %84, %80, %74
  call void @llvm.lifetime.end.p0(i64 4, ptr %5) #7
  call void @llvm.lifetime.end.p0(i64 8, ptr %4) #7
  %87 = load i32, ptr %2, align 4
  ret i32 %87
}