; Function Attrs: nounwind uwtable
define dso_local i32 @cgroup_p_system_create(i32 noundef %0) local_unnamed_addr #0 {
  %2 = alloca ptr, align 8
  call void @llvm.lifetime.start.p0(i64 8, ptr nonnull %2) #11
  store ptr null, ptr %2, align 8
  switch i32 %0, label %29 [
    i32 1, label %3
    i32 2, label %5
    i32 0, label %24
    i32 3, label %24
    i32 4, label %24
  ]

3:                                                ; preds = %1
  %4 = tail call fastcc i32 @_cpuset_create(ptr noundef null)
  br label %31

5:                                                ; preds = %1
  %6 = load ptr, ptr getelementptr inbounds nuw (i8, ptr @int_cg, i64 768), align 16
  call void (ptr, ptr, ...) @_xstrfmtcat(ptr noundef nonnull %2, ptr noundef nonnull @.str.10, ptr noundef %6) #11
  %7 = load ptr, ptr %2, align 8
  %8 = call i32 @getuid() #11
  %9 = call i32 @getgid() #11
  %10 = call i32 @common_cgroup_create(ptr noundef nonnull getelementptr inbounds nuw (i8, ptr @g_cg_ns, i64 64), ptr noundef nonnull getelementptr inbounds nuw (i8, ptr @int_cg, i64 1040), ptr noundef %7, i32 noundef %8, i32 noundef %9) #11
  %.not = icmp eq i32 %10, 0
  br i1 %.not, label %11, label %31

11:                                               ; preds = %5
  %12 = call i32 @common_cgroup_instantiate(ptr noundef nonnull getelementptr inbounds nuw (i8, ptr @int_cg, i64 1040)) #11
  %.not20 = icmp eq i32 %12, 0
  br i1 %.not20, label %13, label %31

13:                                               ; preds = %11
  %14 = call i32 @common_cgroup_set_param(ptr noundef nonnull getelementptr inbounds nuw (i8, ptr @int_cg, i64 1040), ptr noundef nonnull @.str.11, ptr noundef nonnull @.str.12) #11
  %15 = call i32 @common_cgroup_set_param(ptr noundef nonnull getelementptr inbounds nuw (i8, ptr @int_cg, i64 1040), ptr noundef nonnull @.str.7, ptr noundef nonnull @.str.8) #11
  %.not21 = icmp eq i32 %15, 0
  br i1 %.not21, label %19, label %16

16:                                               ; preds = %13
  %17 = load ptr, ptr getelementptr inbounds nuw (i8, ptr @int_cg, i64 1056), align 16
  %18 = call i32 (ptr, ...) @error(ptr noundef nonnull @.str.13, ptr noundef %17) #11
  br label %31

19:                                               ; preds = %13
  %20 = call i32 @common_cgroup_set_uint64_param(ptr noundef nonnull getelementptr inbounds nuw (i8, ptr @int_cg, i64 1040), ptr noundef nonnull @.str.14, i64 noundef 1) #11
  %.not22 = icmp eq i32 %20, 0
  br i1 %.not22, label %31, label %21

21:                                               ; preds = %19
  %22 = load ptr, ptr getelementptr inbounds nuw (i8, ptr @int_cg, i64 1056), align 16
  %23 = call i32 (ptr, ...) @error(ptr noundef nonnull @.str.15, ptr noundef %22) #11
  br label %31

24:                                               ; preds = %1, %1, %1
  %25 = zext nneg i32 %0 to i64
  %26 = getelementptr inbounds nuw [5 x ptr], ptr @g_cg_name, i64 0, i64 %25
  %27 = load ptr, ptr %26, align 8
  %28 = tail call i32 (ptr, ...) @error(ptr noundef nonnull @.str.16, ptr noundef %27) #11
  br label %32

29:                                               ; preds = %1
  %30 = tail call i32 (ptr, ...) @error(ptr noundef nonnull @.str.9, i32 noundef %0) #11
  br label %32

31:                                               ; preds = %3, %19, %11, %5, %21, %16
  %.0 = phi i32 [ %10, %5 ], [ %12, %11 ], [ %15, %16 ], [ %20, %21 ], [ 0, %19 ], [ %4, %3 ]
  call void @slurm_xfree(ptr noundef nonnull %2) #11
  br label %32

32:                                               ; preds = %31, %29, %24
  %.014 = phi i32 [ -1, %29 ], [ -1, %24 ], [ %.0, %31 ]
  call void @llvm.lifetime.end.p0(i64 8, ptr nonnull %2) #11
  ret i32 %.014
}